; Function Attrs: mustprogress uwtable
define dso_local void @_ZN4absl12log_internal22MakeCheckOpValueStringERSoPKv(ptr noundef nonnull align 8 dereferenceable(8) %0, ptr noundef %1) local_unnamed_addr #2 {
  %3 = icmp eq ptr %1, null
  br i1 %3, label %4, label %6

4:                                                ; preds = %2
  %5 = tail call noundef nonnull align 8 dereferenceable(8) ptr @_ZSt16__ostream_insertIcSt11char_traitsIcEERSt13basic_ostreamIT_T0_ES6_PKS3_l(ptr noundef nonnull align 8 dereferenceable(8) %0, ptr noundef nonnull @.str.7, i64 noundef 6)
  br label %8

6:                                                ; preds = %2
  %7 = tail call noundef nonnull align 8 dereferenceable(8) ptr @_ZNSo9_M_insertIPKvEERSoT_(ptr noundef nonnull align 8 dereferenceable(8) %0, ptr noundef nonnull %1)
  br label %8

8:                                                ; preds = %6, %4
  ret void
}